; Function Attrs: mustprogress uwtable
define void @ucol_close_75(ptr noundef %coll) local_unnamed_addr #0 {
entry:
  %cmp.not = icmp eq ptr %coll, null
  br i1 %cmp.not, label %if.end, label %delete.notnull

delete.notnull:                                   ; preds = %entry
  %vtable = load ptr, ptr %coll, align 8
  %vfn = getelementptr inbounds i8, ptr %vtable, i64 8
  %0 = load ptr, ptr %vfn, align 8
  tail call void %0(ptr noundef nonnull align 8 dereferenceable(8) %coll) #10
  br label %if.end

if.end:                                           ; preds = %delete.notnull, %entry
  ret void
}